; Function Attrs: mustprogress nounwind uwtable
define internal fastcc void @_ZZL21main_nix_prefetch_urliPPcEN6MyArgsD1Ev(ptr noundef nonnull align 8 dereferenceable(320) %0) unnamed_addr #5 align 2 personality ptr @__gxx_personality_v0 {
  %2 = getelementptr inbounds i8, ptr %0, i64 200
  tail call void @_ZN3nix11MixEvalArgsD2Ev(ptr noundef nonnull align 8 dereferenceable(120) %2, ptr noundef nonnull getelementptr inbounds ([17 x ptr], ptr @_ZTTZL21main_nix_prefetch_urliPPcE6MyArgs, i64 0, i64 8)) #28
  store ptr getelementptr inbounds ({ [7 x ptr], [4 x ptr], [20 x ptr] }, ptr @_ZTCZL21main_nix_prefetch_urliPPcE6MyArgs0_N3nix10LegacyArgsE, i64 0, i32 0, i64 3), ptr %0, align 8
  %3 = getelementptr inbounds i8, ptr %0, i64 320
  store ptr getelementptr inbounds ({ [7 x ptr], [4 x ptr], [20 x ptr] }, ptr @_ZTCZL21main_nix_prefetch_urliPPcE6MyArgs0_N3nix10LegacyArgsE, i64 0, i32 2, i64 11), ptr %3, align 8
  %4 = getelementptr inbounds i8, ptr %0, i64 40
  store ptr getelementptr inbounds ({ [7 x ptr], [4 x ptr], [20 x ptr] }, ptr @_ZTCZL21main_nix_prefetch_urliPPcE6MyArgs0_N3nix10LegacyArgsE, i64 0, i32 1, i64 3), ptr %4, align 8
  %5 = getelementptr inbounds i8, ptr %0, i64 184
  %6 = load ptr, ptr %5, align 8
  %.not.i.i.i.i = icmp eq ptr %6, null
  br i1 %.not.i.i.i.i, label %_ZNSt8functionIFbRSt14_List_iteratorINSt7__cxx1112basic_stringIcSt11char_traitsIcESaIcEEEERKS7_EED2Ev.exit.i.i, label %7

7:                                                ; preds = %1
  %8 = getelementptr inbounds i8, ptr %0, i64 168
  %9 = invoke noundef zeroext i1 %6(ptr noundef nonnull align 8 dereferenceable(16) %8, ptr noundef nonnull align 8 dereferenceable(16) %8, i32 noundef 3)
          to label %_ZNSt8functionIFbRSt14_List_iteratorINSt7__cxx1112basic_stringIcSt11char_traitsIcESaIcEEEERKS7_EED2Ev.exit.i.i unwind label %10

10:                                               ; preds = %7
  %11 = landingpad { ptr, i32 }
          catch ptr null
  %12 = extractvalue { ptr, i32 } %11, 0
  tail call void @__clang_call_terminate(ptr %12) #32
  unreachable

_ZNSt8functionIFbRSt14_List_iteratorINSt7__cxx1112basic_stringIcSt11char_traitsIcESaIcEEEERKS7_EED2Ev.exit.i.i: ; preds = %7, %1
  tail call void @_ZN3nix8RootArgsD2Ev(ptr noundef nonnull align 8 dereferenceable(128) %4, ptr noundef nonnull getelementptr inbounds ([17 x ptr], ptr @_ZTTZL21main_nix_prefetch_urliPPcE6MyArgs, i64 0, i64 4)) #28
  store ptr getelementptr inbounds ({ [5 x ptr], [20 x ptr] }, ptr @_ZTCZL21main_nix_prefetch_urliPPcE6MyArgs0_N3nix13MixCommonArgsE, i64 0, i32 0, i64 3), ptr %0, align 8
  store ptr getelementptr inbounds ({ [5 x ptr], [20 x ptr] }, ptr @_ZTCZL21main_nix_prefetch_urliPPcE6MyArgs0_N3nix13MixCommonArgsE, i64 0, i32 1, i64 11), ptr %3, align 8
  %13 = getelementptr inbounds i8, ptr %0, i64 8
  %14 = load ptr, ptr %13, align 8
  %15 = getelementptr inbounds i8, ptr %0, i64 24
  %16 = icmp eq ptr %14, %15
  br i1 %16, label %_ZNKSt7__cxx1112basic_stringIcSt11char_traitsIcESaIcEE11_M_is_localEv.exit.thread.i.i.i.i.i, label %_ZNKSt7__cxx1112basic_stringIcSt11char_traitsIcESaIcEE11_M_is_localEv.exit.i.i.i.i.i

_ZNKSt7__cxx1112basic_stringIcSt11char_traitsIcESaIcEE11_M_is_localEv.exit.thread.i.i.i.i.i: ; preds = %_ZNSt8functionIFbRSt14_List_iteratorINSt7__cxx1112basic_stringIcSt11char_traitsIcESaIcEEEERKS7_EED2Ev.exit.i.i
  %17 = getelementptr inbounds i8, ptr %0, i64 16
  %18 = load i64, ptr %17, align 8
  %19 = icmp ult i64 %18, 16
  tail call void @llvm.assume(i1 %19)
  br label %_ZZL21main_nix_prefetch_urliPPcEN6MyArgsD2Ev.exit

_ZNKSt7__cxx1112basic_stringIcSt11char_traitsIcESaIcEE11_M_is_localEv.exit.i.i.i.i.i: ; preds = %_ZNSt8functionIFbRSt14_List_iteratorINSt7__cxx1112basic_stringIcSt11char_traitsIcESaIcEEEERKS7_EED2Ev.exit.i.i
  tail call void @_ZdlPv(ptr noundef %14) #31
  br label %_ZZL21main_nix_prefetch_urliPPcEN6MyArgsD2Ev.exit

_ZZL21main_nix_prefetch_urliPPcEN6MyArgsD2Ev.exit: ; preds = %_ZNKSt7__cxx1112basic_stringIcSt11char_traitsIcESaIcEE11_M_is_localEv.exit.thread.i.i.i.i.i, %_ZNKSt7__cxx1112basic_stringIcSt11char_traitsIcESaIcEE11_M_is_localEv.exit.i.i.i.i.i
  tail call void @_ZNSaIcED2Ev(ptr noundef nonnull align 1 dereferenceable(1) %13) #28
  tail call void @_ZN3nix4ArgsD2Ev(ptr noundef nonnull align 8 dereferenceable(208) %3) #28
  ret void
}